target datalayout = "e-m:e-p270:32:32-p271:32:32-p272:64:64-i64:64-i128:128-f80:128-n8:16:32:64-S128"
target triple = "x86_64-pc-linux-gnu"

@proto_grpc = internal global i32 0, align 4
@grpc_handle = internal global ptr null, align 8
@grpc_web_handle = internal global ptr null, align 8
@grpc_web_text_handle = internal global ptr null, align 8
@__const.proto_reg_handoff_grpc.content_types = private unnamed_addr constant [4 x ptr] [ptr @.str.33, ptr @.str.34, ptr @.str.35, ptr null], align 16
@__const.proto_reg_handoff_grpc.content_types_web = private unnamed_addr constant [3 x ptr] [ptr @.str.36, ptr @.str.37, ptr null], align 16
@__const.proto_reg_handoff_grpc.content_types_web_text = private unnamed_addr constant [3 x ptr] [ptr @.str.38, ptr @.str.39, ptr null], align 16
@.str.40 = private unnamed_addr constant [23 x i8] c"streaming_content_type\00", align 1
@.str.41 = private unnamed_addr constant [11 x i8] c"media_type\00", align 1
@.str.42 = private unnamed_addr constant [5 x i8] c"http\00", align 1
@proto_http = internal global i32 0, align 4
@.str.43 = private unnamed_addr constant [16 x i8] c"data-text-lines\00", align 1
@data_text_lines_handle = internal global ptr null, align 8

; Function Attrs: null_pointer_is_valid sspstrong uwtable
define hidden void @proto_reg_handoff_grpc() #0 {
  %1 = alloca i32, align 4
  %2 = alloca [4 x ptr], align 16
  %3 = alloca [3 x ptr], align 16
  %4 = alloca [3 x ptr], align 16
  call void @llvm.lifetime.start.p0(i64 4, ptr %1) #8
  call void @llvm.lifetime.start.p0(i64 32, ptr %2) #8
  call void @llvm.memcpy.p0.p0.i64(ptr align 16 %2, ptr align 16 @__const.proto_reg_handoff_grpc.content_types, i64 32, i1 false)
  call void @llvm.lifetime.start.p0(i64 24, ptr %3) #8
  call void @llvm.memcpy.p0.p0.i64(ptr align 16 %3, ptr align 16 @__const.proto_reg_handoff_grpc.content_types_web, i64 24, i1 false)
  call void @llvm.lifetime.start.p0(i64 24, ptr %4) #8
  call void @llvm.memcpy.p0.p0.i64(ptr align 16 %4, ptr align 16 @__const.proto_reg_handoff_grpc.content_types_web_text, i64 24, i1 false)
  store i32 0, ptr %1, align 4
  br label %5

5:                                                ; preds = %22, %0
  %6 = load i32, ptr %1, align 4
  %7 = sext i32 %6 to i64
  %8 = getelementptr [4 x ptr], ptr %2, i64 0, i64 %7
  %9 = load ptr, ptr %8, align 8
  %10 = icmp ne ptr %9, null
  br i1 %10, label %11, label %25

11:                                               ; preds = %5
  %12 = load i32, ptr %1, align 4
  %13 = sext i32 %12 to i64
  %14 = getelementptr [4 x ptr], ptr %2, i64 0, i64 %13
  %15 = load ptr, ptr %14, align 8
  %16 = load ptr, ptr @grpc_handle, align 8
  call void @dissector_add_string(ptr noundef @.str.40, ptr noundef %15, ptr noundef %16)
  %17 = load i32, ptr %1, align 4
  %18 = sext i32 %17 to i64
  %19 = getelementptr [4 x ptr], ptr %2, i64 0, i64 %18
  %20 = load ptr, ptr %19, align 8
  %21 = load ptr, ptr @grpc_handle, align 8
  call void @dissector_add_string(ptr noundef @.str.41, ptr noundef %20, ptr noundef %21)
  br label %22

22:                                               ; preds = %11
  %23 = load i32, ptr %1, align 4
  %24 = add i32 %23, 1
  store i32 %24, ptr %1, align 4
  br label %5, !llvm.loop !6

25:                                               ; preds = %5
  store i32 0, ptr %1, align 4
  br label %26

26:                                               ; preds = %43, %25
  %27 = load i32, ptr %1, align 4
  %28 = sext i32 %27 to i64
  %29 = getelementptr [3 x ptr], ptr %3, i64 0, i64 %28
  %30 = load ptr, ptr %29, align 8
  %31 = icmp ne ptr %30, null
  br i1 %31, label %32, label %46

32:                                               ; preds = %26
  %33 = load i32, ptr %1, align 4
  %34 = sext i32 %33 to i64
  %35 = getelementptr [3 x ptr], ptr %3, i64 0, i64 %34
  %36 = load ptr, ptr %35, align 8
  %37 = load ptr, ptr @grpc_web_handle, align 8
  call void @dissector_add_string(ptr noundef @.str.40, ptr noundef %36, ptr noundef %37)
  %38 = load i32, ptr %1, align 4
  %39 = sext i32 %38 to i64
  %40 = getelementptr [3 x ptr], ptr %3, i64 0, i64 %39
  %41 = load ptr, ptr %40, align 8
  %42 = load ptr, ptr @grpc_web_handle, align 8
  call void @dissector_add_string(ptr noundef @.str.41, ptr noundef %41, ptr noundef %42)
  br label %43

43:                                               ; preds = %32
  %44 = load i32, ptr %1, align 4
  %45 = add i32 %44, 1
  store i32 %45, ptr %1, align 4
  br label %26, !llvm.loop !8

46:                                               ; preds = %26
  store i32 0, ptr %1, align 4
  br label %47

47:                                               ; preds = %64, %46
  %48 = load i32, ptr %1, align 4
  %49 = sext i32 %48 to i64
  %50 = getelementptr [3 x ptr], ptr %4, i64 0, i64 %49
  %51 = load ptr, ptr %50, align 8
  %52 = icmp ne ptr %51, null
  br i1 %52, label %53, label %67

53:                                               ; preds = %47
  %54 = load i32, ptr %1, align 4
  %55 = sext i32 %54 to i64
  %56 = getelementptr [3 x ptr], ptr %4, i64 0, i64 %55
  %57 = load ptr, ptr %56, align 8
  %58 = load ptr, ptr @grpc_web_text_handle, align 8
  call void @dissector_add_string(ptr noundef @.str.40, ptr noundef %57, ptr noundef %58)
  %59 = load i32, ptr %1, align 4
  %60 = sext i32 %59 to i64
  %61 = getelementptr [3 x ptr], ptr %4, i64 0, i64 %60
  %62 = load ptr, ptr %61, align 8
  %63 = load ptr, ptr @grpc_web_text_handle, align 8
  call void @dissector_add_string(ptr noundef @.str.41, ptr noundef %62, ptr noundef %63)
  br label %64

64:                                               ; preds = %53
  %65 = load i32, ptr %1, align 4
  %66 = add i32 %65, 1
  store i32 %66, ptr %1, align 4
  br label %47, !llvm.loop !9

67:                                               ; preds = %47
  %68 = call i32 @proto_get_id_by_filter_name(ptr noundef @.str.42)
  store i32 %68, ptr @proto_http, align 4
  %69 = load i32, ptr @proto_grpc, align 4
  %70 = call ptr @find_dissector_add_dependency(ptr noundef @.str.43, i32 noundef %69)
  store ptr %70, ptr @data_text_lines_handle, align 8
  call void @llvm.lifetime.end.p0(i64 24, ptr %4) #8
  call void @llvm.lifetime.end.p0(i64 24, ptr %3) #8
  call void @llvm.lifetime.end.p0(i64 32, ptr %2) #8
  call void @llvm.lifetime.end.p0(i64 4, ptr %1) #8
  ret void
}